; Function Attrs: mustprogress nounwind uwtable
define noundef zeroext i1 @_ZNK19OpenColorIO_v2_4dev12CPUProcessor4Impl9isDynamicEv(ptr nocapture noundef nonnull readonly align 8 dereferenceable(144) %this) local_unnamed_addr #4 align 2 personality ptr @__gxx_personality_v0 {
entry:
  %0 = load ptr, ptr %this, align 8
  %vtable = load ptr, ptr %0, align 8
  %vfn = getelementptr inbounds i8, ptr %vtable, i64 24
  %1 = load ptr, ptr %vfn, align 8
  %call2 = invoke noundef zeroext i1 %1(ptr noundef nonnull align 8 dereferenceable(8) %0)
          to label %invoke.cont unwind label %terminate.lpad.loopexit.split-lp

invoke.cont:                                      ; preds = %entry
  br i1 %call2, label %return, label %if.end

if.end:                                           ; preds = %invoke.cont
  %m_cpuOps = getelementptr inbounds i8, ptr %this, i64 16
  %2 = load ptr, ptr %m_cpuOps, align 8
  %_M_finish.i = getelementptr inbounds i8, ptr %this, i64 24
  %3 = load ptr, ptr %_M_finish.i, align 8
  %cmp.i.not4 = icmp eq ptr %2, %3
  br i1 %cmp.i.not4, label %for.end, label %for.body

for.cond:                                         ; preds = %invoke.cont11
  %incdec.ptr.i = getelementptr inbounds i8, ptr %__begin1.sroa.0.05, i64 16
  %cmp.i.not = icmp eq ptr %incdec.ptr.i, %3
  br i1 %cmp.i.not, label %for.end, label %for.body

for.body:                                         ; preds = %if.end, %for.cond
  %__begin1.sroa.0.05 = phi ptr [ %incdec.ptr.i, %for.cond ], [ %2, %if.end ]
  %4 = load ptr, ptr %__begin1.sroa.0.05, align 8
  %vtable9 = load ptr, ptr %4, align 8
  %vfn10 = getelementptr inbounds i8, ptr %vtable9, i64 24
  %5 = load ptr, ptr %vfn10, align 8
  %call12 = invoke noundef zeroext i1 %5(ptr noundef nonnull align 8 dereferenceable(8) %4)
          to label %invoke.cont11 unwind label %terminate.lpad.loopexit

invoke.cont11:                                    ; preds = %for.body
  br i1 %call12, label %return, label %for.cond

for.end:                                          ; preds = %for.cond, %if.end
  %m_outBitDepthOp = getelementptr inbounds i8, ptr %this, i64 40
  %6 = load ptr, ptr %m_outBitDepthOp, align 8
  %vtable17 = load ptr, ptr %6, align 8
  %vfn18 = getelementptr inbounds i8, ptr %vtable17, i64 24
  %7 = load ptr, ptr %vfn18, align 8
  %call20 = invoke noundef zeroext i1 %7(ptr noundef nonnull align 8 dereferenceable(8) %6)
          to label %return unwind label %terminate.lpad.loopexit.split-lp

return:                                           ; preds = %invoke.cont11, %for.end, %invoke.cont
  %retval.0 = phi i1 [ true, %invoke.cont ], [ %call20, %for.end ], [ true, %invoke.cont11 ]
  ret i1 %retval.0

terminate.lpad.loopexit:                          ; preds = %for.body
  %lpad.loopexit = landingpad { ptr, i32 }
          catch ptr null
  br label %terminate.lpad

terminate.lpad.loopexit.split-lp:                 ; preds = %entry, %for.end
  %lpad.loopexit.split-lp = landingpad { ptr, i32 }
          catch ptr null
  br label %terminate.lpad

terminate.lpad:                                   ; preds = %terminate.lpad.loopexit.split-lp, %terminate.lpad.loopexit
  %lpad.phi = phi { ptr, i32 } [ %lpad.loopexit, %terminate.lpad.loopexit ], [ %lpad.loopexit.split-lp, %terminate.lpad.loopexit.split-lp ]
  %8 = extractvalue { ptr, i32 } %lpad.phi, 0
  tail call void @__clang_call_terminate(ptr %8) #23
  unreachable
}